Certificate:
    Data:
        Version: 3 (0x2)
        Serial Number: 305419897 (0x12345679)
    Signature Algorithm: sha256WithRSAEncryption
        Issuer: CN=SRK1_sha256_2048_65537_v3_ca
        Validity
            Not Before: Mar 17 19:03:23 2015 GMT
            Not After : Mar  9 19:03:23 2045 GMT
        Subject: CN=CSF1_1_sha256_2048_65537_v3_usr
        Subject Public Key Info:
            Public Key Algorithm: rsaEncryption
                Public-Key: (2048 bit)
                Modulus:
                    00:c2:8e:e6:65:3d:4e:e6:71:29:71:57:60:07:b4:
                    71:f1:3a:98:bf:9b:1f:8c:36:11:46:50:d5:54:a7:
                    f1:2f:9e:d5:8f:71:ec:be:2c:1d:18:fd:f9:42:55:
                    ac:fe:ce:8e:fb:10:ef:9f:76:c8:2b:f0:35:87:f6:
                    6a:6b:44:50:47:c0:08:7e:7b:17:fa:10:07:4d:f6:
                    9f:30:7f:77:3e:4d:63:cd:a0:cc:de:4b:4f:f0:80:
                    ae:48:02:26:bd:0c:97:b2:10:40:d7:85:cc:97:2e:
                    6e:c5:66:7f:f3:d5:b3:69:42:c9:bd:11:ed:11:0a:
                    d7:06:b1:dc:34:58:d2:90:d2:50:32:b7:64:cf:d8:
                    0b:fd:ec:17:86:45:cf:6b:19:22:df:65:db:fb:ab:
                    d1:15:6d:2b:b9:47:c9:ef:75:a9:8a:40:d2:ce:63:
                    45:a6:30:7d:b5:cd:96:ff:04:0d:8e:e8:df:f7:88:
                    6d:8f:0b:a2:4c:ab:8d:ea:9c:07:24:f4:5e:a9:a9:
                    df:bd:98:95:9e:5e:60:6e:0e:56:06:0a:b6:57:8c:
                    1e:9e:ac:a0:49:0b:38:fe:af:0d:45:7c:0a:0e:0e:
                    36:5b:10:95:71:99:eb:88:89:1a:25:6c:1b:31:b3:
                    71:ba:c7:47:22:3e:2e:75:0f:19:78:35:e9:ce:0c:
                    6b:13
                Exponent: 65537 (0x10001)
        X509v3 extensions:
            X509v3 Basic Constraints: 
                CA:FALSE
            Netscape Comment: 
                OpenSSL Generated Certificate
            X509v3 Subject Key Identifier: 
                0E:F2:8D:50:85:6E:B6:33:EF:FA:13:34:AC:D4:6F:15:9B:98:71:A4
            X509v3 Authority Key Identifier: 
                keyid:9A:E3:4F:93:3E:A6:92:AC:F6:95:88:F4:EA:63:BE:22:CB:CF:72:29

    Signature Algorithm: sha256WithRSAEncryption
         a6:49:28:45:70:09:4a:21:cf:de:72:8c:fb:ca:4d:f8:a6:be:
         61:18:fe:0f:f8:16:bd:92:92:91:9c:70:db:c7:ba:99:a7:0b:
         49:d6:9d:ed:9e:66:49:b7:8c:8f:2d:45:34:47:89:09:8e:0c:
         6a:11:fc:9e:5d:41:cd:22:e8:b9:da:2d:8b:8b:fe:8d:35:8b:
         0a:66:00:62:5f:2c:0c:21:a7:6e:c8:f9:2a:f4:58:d6:d5:dc:
         9c:24:a9:11:85:8e:83:bc:53:b9:47:b2:08:4b:0f:4b:f0:39:
         87:cd:14:76:18:bd:cd:20:ef:87:51:10:6f:42:40:60:d9:da:
         6e:8a:de:c6:a3:0e:36:e9:cb:2b:de:3b:1b:a8:87:04:5e:e1:
         12:b3:47:06:65:f6:bc:c2:f3:b9:d9:78:b2:04:fd:02:03:aa:
         94:7e:17:a9:c4:fc:02:ba:1f:3d:3c:83:69:88:09:52:cc:3e:
         90:83:4f:ce:2d:82:7b:cb:71:9c:62:89:1a:63:34:1c:1a:02:
         49:ad:3c:9a:2a:f5:0c:0e:f2:ca:21:b2:09:84:29:5e:8f:79:
         ed:06:11:19:e3:cb:82:cd:06:fa:07:1b:ce:68:8b:c8:90:1f:
         8e:11:ce:4d:fe:5b:a5:88:cc:0c:2f:1b:c7:90:5e:65:2e:70:
         27:b7:38:cb
-----BEGIN CERTIFICATE-----
MIIDSjCCAjKgAwIBAgIEEjRWeTANBgkqhkiG9w0BAQsFADAnMSUwIwYDVQQDDBxT
UksxX3NoYTI1Nl8yMDQ4XzY1NTM3X3YzX2NhMB4XDTE1MDMxNzE5MDMyM1oXDTQ1
MDMwOTE5MDMyM1owKjEoMCYGA1UEAwwfQ1NGMV8xX3NoYTI1Nl8yMDQ4XzY1NTM3
X3YzX3VzcjCCASIwDQYJKoZIhvcNAQEBBQADggEPADCCAQoCggEBAMKO5mU9TuZx
KXFXYAe0cfE6mL+bH4w2EUZQ1VSn8S+e1Y9x7L4sHRj9+UJVrP7OjvsQ7592yCvw
NYf2amtEUEfACH57F/oQB032nzB/dz5NY82gzN5LT/CArkgCJr0Ml7IQQNeFzJcu
bsVmf/PVs2lCyb0R7REK1wax3DRY0pDSUDK3ZM/YC/3sF4ZFz2sZIt9l2/ur0RVt
K7lHye91qYpA0s5jRaYwfbXNlv8EDY7o3/eIbY8LokyrjeqcByT0Xqmp372YlZ5e
YG4OVgYKtleMHp6soEkLOP6vDUV8Cg4ONlsQlXGZ64iJGiVsGzGzcbrHRyI+LnUP
GXg16c4MaxMCAwEAAaN7MHkwCQYDVR0TBAIwADAsBglghkgBhvhCAQ0EHxYdT3Bl
blNTTCBHZW5lcmF0ZWQgQ2VydGlmaWNhdGUwHQYDVR0OBBYEFA7yjVCFbrYz7/oT
NKzUbxWbmHGkMB8GA1UdIwQYMBaAFJrjT5M+ppKs9pWI9OpjviLLz3IpMA0GCSqG
SIb3DQEBCwUAA4IBAQCmSShFcAlKIc/ecoz7yk34pr5hGP4P+Ba9kpKRnHDbx7qZ
pwtJ1p3tnmZJt4yPLUU0R4kJjgxqEfyeXUHNIui52i2Li/6NNYsKZgBiXywMIadu
yPkq9FjW1dycJKkRhY6DvFO5R7IISw9L8DmHzRR2GL3NIO+HURBvQkBg2dpuit7G
ow426csr3jsbqIcEXuESs0cGZfa8wvO52XiyBP0CA6qUfhepxPwCuh89PINpiAlS
zD6Qg0/OLYJ7y3GcYokaYzQcGgJJrTyaKvUMDvLKIbIJhClej3ntBhEZ48uCzQb6
BxvOaIvIkB+OEc5N/luliMwMLxvHkF5lLnAntzjL
-----END CERTIFICATE-----
