Certificate:
    Data:
        Version: 3 (0x2)
        Serial Number: 305419898 (0x1234567a)
    Signature Algorithm: sha256WithRSAEncryption
        Issuer: CN=SRK1_sha256_2048_65537_v3_ca
        Validity
            Not Before: Mar 17 19:03:23 2015 GMT
            Not After : Mar  9 19:03:23 2045 GMT
        Subject: CN=IMG1_1_sha256_2048_65537_v3_usr
        Subject Public Key Info:
            Public Key Algorithm: rsaEncryption
                Public-Key: (2048 bit)
                Modulus:
                    00:cb:0b:7b:82:df:9c:18:8a:4c:fa:62:49:6a:7d:
                    b8:33:77:d0:ac:4a:2d:fb:40:d8:18:07:39:0c:39:
                    80:c8:de:db:f9:ea:1c:f8:cb:b6:50:be:37:88:be:
                    e8:f9:11:ab:f9:5d:81:13:3f:d6:12:44:2c:ed:43:
                    06:a0:c1:ef:4b:f5:14:9e:a5:67:8c:3e:f8:91:18:
                    e4:71:5e:2d:4f:08:d0:3d:a0:dc:01:61:56:fe:79:
                    28:2e:a6:40:9b:9b:9d:85:d2:83:e2:81:96:43:a8:
                    3d:ce:93:85:39:f2:38:44:64:14:39:df:db:3e:c9:
                    de:52:b9:cf:24:d8:1f:bd:9e:3f:b4:f4:bd:2b:10:
                    2f:bf:a8:5f:42:82:f8:47:e9:2e:e7:87:cd:4f:52:
                    41:a4:0e:5e:67:ff:59:8e:b0:3c:4b:d7:17:cd:8e:
                    4e:64:7d:07:21:e8:1c:44:0d:39:3c:89:53:60:bc:
                    e8:d4:b3:72:7d:4a:49:d8:7d:19:5e:94:71:a8:3b:
                    c2:ca:3e:c3:74:70:ac:dd:7e:70:bf:dc:e0:78:5f:
                    2e:70:b7:d7:fe:0e:4a:09:de:46:b2:cc:a3:e9:5d:
                    f7:f4:c2:df:79:6b:88:85:8c:32:43:8c:fa:2f:4e:
                    4d:e6:de:77:2d:fe:be:d9:e6:9e:71:58:64:9a:82:
                    fc:37
                Exponent: 65537 (0x10001)
        X509v3 extensions:
            X509v3 Basic Constraints: 
                CA:FALSE
            Netscape Comment: 
                OpenSSL Generated Certificate
            X509v3 Subject Key Identifier: 
                20:EB:BA:FD:95:ED:2F:33:39:C6:74:7C:FD:7E:05:88:A4:26:BA:A4
            X509v3 Authority Key Identifier: 
                keyid:9A:E3:4F:93:3E:A6:92:AC:F6:95:88:F4:EA:63:BE:22:CB:CF:72:29

    Signature Algorithm: sha256WithRSAEncryption
         82:8e:94:0b:fe:be:cf:76:81:9f:9e:48:0d:6d:bc:e2:ef:d3:
         b3:0c:ba:c3:b6:55:15:91:a1:9b:b2:8e:c5:83:d5:cf:2f:e1:
         31:d5:c0:37:21:e9:79:19:ab:4f:79:4c:6a:40:38:e4:80:7b:
         e5:09:01:91:93:61:64:5b:76:ab:a5:c7:e1:24:92:1a:23:63:
         09:fb:e0:33:40:78:ef:d2:de:ba:99:63:a6:5a:59:ce:06:5c:
         b7:a6:36:1f:46:49:ab:72:8c:d4:e3:71:cb:db:9d:2a:d8:94:
         86:53:3b:99:fe:4c:1f:00:20:ef:e2:2d:88:be:84:e4:85:12:
         f9:91:f1:2f:5e:25:92:5c:d2:68:95:92:f9:bb:6c:fd:2c:d1:
         e7:9c:21:3b:36:62:51:31:40:ff:d0:cc:7a:1c:e8:f1:1c:78:
         6b:44:63:99:b8:8e:7e:a6:ac:4c:6f:6c:32:7d:69:ac:14:cf:
         bf:1b:aa:6c:72:fa:7d:24:a9:db:f8:c1:2b:24:9d:33:68:78:
         cd:3e:0c:20:44:f3:52:f7:7f:98:3f:f8:cd:c8:7f:aa:1e:a1:
         ee:0d:f0:42:60:a3:4b:77:9f:6d:38:81:41:9b:a2:05:eb:38:
         65:ab:39:46:cc:7c:62:61:9b:9f:9a:65:e5:0e:83:27:d1:ce:
         8b:c1:9c:0c
-----BEGIN CERTIFICATE-----
MIIDSjCCAjKgAwIBAgIEEjRWejANBgkqhkiG9w0BAQsFADAnMSUwIwYDVQQDDBxT
UksxX3NoYTI1Nl8yMDQ4XzY1NTM3X3YzX2NhMB4XDTE1MDMxNzE5MDMyM1oXDTQ1
MDMwOTE5MDMyM1owKjEoMCYGA1UEAwwfSU1HMV8xX3NoYTI1Nl8yMDQ4XzY1NTM3
X3YzX3VzcjCCASIwDQYJKoZIhvcNAQEBBQADggEPADCCAQoCggEBAMsLe4LfnBiK
TPpiSWp9uDN30KxKLftA2BgHOQw5gMje2/nqHPjLtlC+N4i+6PkRq/ldgRM/1hJE
LO1DBqDB70v1FJ6lZ4w++JEY5HFeLU8I0D2g3AFhVv55KC6mQJubnYXSg+KBlkOo
Pc6ThTnyOERkFDnf2z7J3lK5zyTYH72eP7T0vSsQL7+oX0KC+EfpLueHzU9SQaQO
Xmf/WY6wPEvXF82OTmR9ByHoHEQNOTyJU2C86NSzcn1KSdh9GV6Ucag7wso+w3Rw
rN1+cL/c4HhfLnC31/4OSgneRrLMo+ld9/TC33lriIWMMkOM+i9OTebedy3+vtnm
nnFYZJqC/DcCAwEAAaN7MHkwCQYDVR0TBAIwADAsBglghkgBhvhCAQ0EHxYdT3Bl
blNTTCBHZW5lcmF0ZWQgQ2VydGlmaWNhdGUwHQYDVR0OBBYEFCDruv2V7S8zOcZ0
fP1+BYikJrqkMB8GA1UdIwQYMBaAFJrjT5M+ppKs9pWI9OpjviLLz3IpMA0GCSqG
SIb3DQEBCwUAA4IBAQCCjpQL/r7PdoGfnkgNbbzi79OzDLrDtlUVkaGbso7Fg9XP
L+Ex1cA3Iel5GatPeUxqQDjkgHvlCQGRk2FkW3arpcfhJJIaI2MJ++AzQHjv0t66
mWOmWlnOBly3pjYfRkmrcozU43HL250q2JSGUzuZ/kwfACDv4i2IvoTkhRL5kfEv
XiWSXNJolZL5u2z9LNHnnCE7NmJRMUD/0Mx6HOjxHHhrRGOZuI5+pqxMb2wyfWms
FM+/G6pscvp9JKnb+MErJJ0zaHjNPgwgRPNS93+YP/jNyH+qHqHuDfBCYKNLd59t
OIFBm6IF6zhlqzlGzHxiYZufmmXlDoMn0c6LwZwM
-----END CERTIFICATE-----
