Certificate:
    Data:
        Version: 3 (0x2)
        Serial Number: 305419896 (0x12345678)
    Signature Algorithm: sha256WithRSAEncryption
        Issuer: CN=CA1_sha256_2048_65537_v3_ca
        Validity
            Not Before: Mar 17 19:03:23 2015 GMT
            Not After : Mar  9 19:03:23 2045 GMT
        Subject: CN=SRK1_sha256_2048_65537_v3_ca
        Subject Public Key Info:
            Public Key Algorithm: rsaEncryption
                Public-Key: (2048 bit)
                Modulus:
                    00:c3:06:15:66:cd:3b:c8:42:5e:b6:6a:0c:de:eb:
                    98:0b:ee:f2:8d:cc:83:76:9e:5f:9e:39:2f:35:cb:
                    d3:05:66:8c:54:ca:6a:36:59:53:7b:cd:25:91:e1:
                    ba:4f:56:cf:2b:b9:52:fc:3b:47:8f:b8:e6:83:2a:
                    93:c5:89:e2:8c:57:eb:f9:31:5d:bb:a0:71:c5:2a:
                    df:d7:07:f8:ff:fd:c7:92:66:9a:aa:16:fa:79:64:
                    b6:08:ac:fa:fd:86:13:e9:3a:1a:90:e0:64:a6:3e:
                    62:cc:79:15:0f:75:66:ee:85:db:08:73:0b:f3:f0:
                    4f:69:fb:eb:41:58:a2:fa:91:d6:5e:c6:e4:3d:94:
                    9f:d3:2e:82:68:71:30:8c:10:2d:97:ea:ce:fb:02:
                    8f:72:96:1e:cb:dd:c8:a3:c4:16:71:70:a3:63:2e:
                    6b:52:17:cf:ab:d8:30:cd:cc:a6:8a:ae:f2:7c:21:
                    9c:08:64:6f:12:13:4d:3d:67:66:90:84:85:5d:61:
                    dc:5d:ad:05:f3:c1:a1:e9:66:34:74:87:4f:ec:97:
                    0b:b9:f3:29:e8:09:41:aa:dc:b9:b1:8c:5f:eb:35:
                    b2:0b:ca:e8:a5:1a:15:2c:96:fa:5b:c8:ee:f6:5a:
                    63:ba:29:97:2d:c5:1b:fd:b2:67:c1:9a:46:e5:d8:
                    82:cd
                Exponent: 65537 (0x10001)
        X509v3 extensions:
            X509v3 Subject Key Identifier: 
                9A:E3:4F:93:3E:A6:92:AC:F6:95:88:F4:EA:63:BE:22:CB:CF:72:29
            X509v3 Authority Key Identifier: 
                keyid:0E:A4:FE:3C:F4:88:25:0D:E8:2C:3E:74:94:0E:A4:0F:EC:4F:7A:7C
                DirName:/CN=CA1_sha256_2048_65537_v3_ca
                serial:E6:EE:44:6D:44:86:76:31

            X509v3 Basic Constraints: critical
                CA:TRUE
            X509v3 Key Usage: 
                Certificate Sign
    Signature Algorithm: sha256WithRSAEncryption
         91:d8:c2:8b:b8:0b:84:0e:da:82:23:b9:3a:b6:30:08:e7:1f:
         67:19:77:d2:49:8d:83:fb:30:7a:1a:22:44:00:5d:3c:6e:4b:
         fb:0c:32:6a:b6:b1:5f:72:a4:d0:eb:ee:9c:34:50:e9:6c:d2:
         df:c7:4a:01:ea:81:98:40:ed:e7:ab:6d:c6:66:1f:2a:4f:ab:
         32:e8:7f:ec:99:37:f6:2d:ae:a2:4b:a2:6c:ee:f6:5d:2d:5c:
         d6:8b:fc:db:ca:ca:4a:94:81:9e:61:35:91:b2:b5:b1:0a:f9:
         87:01:04:28:10:3d:7f:c6:59:5c:9b:53:4b:e1:76:0c:5c:30:
         da:8d:f7:1e:fa:27:23:89:1f:9c:63:44:c4:74:6b:cd:57:0e:
         4b:e1:38:42:c1:dc:a2:83:f5:d4:99:f1:e4:a8:d5:32:d4:0f:
         29:f3:f4:74:11:11:c0:77:e6:13:4b:25:db:3c:b2:26:d2:2a:
         d0:2a:55:60:af:83:77:8d:3e:d7:a1:74:5b:d8:13:f0:f5:8c:
         7a:a8:d0:b3:c3:df:d4:57:df:fe:84:7d:a4:28:79:fa:20:fd:
         45:7e:8b:79:67:43:e6:f0:72:e9:cb:2f:87:96:a6:8d:fb:7c:
         98:85:4f:2c:5c:d5:c4:53:bc:ae:c9:11:e4:0f:84:55:e3:55:
         5f:a8:72:23
-----BEGIN CERTIFICATE-----
MIIDZDCCAkygAwIBAgIEEjRWeDANBgkqhkiG9w0BAQsFADAmMSQwIgYDVQQDFBtD
QTFfc2hhMjU2XzIwNDhfNjU1MzdfdjNfY2EwHhcNMTUwMzE3MTkwMzIzWhcNNDUw
MzA5MTkwMzIzWjAnMSUwIwYDVQQDDBxTUksxX3NoYTI1Nl8yMDQ4XzY1NTM3X3Yz
X2NhMIIBIjANBgkqhkiG9w0BAQEFAAOCAQ8AMIIBCgKCAQEAwwYVZs07yEJetmoM
3uuYC+7yjcyDdp5fnjkvNcvTBWaMVMpqNllTe80lkeG6T1bPK7lS/DtHj7jmgyqT
xYnijFfr+TFdu6BxxSrf1wf4//3Hkmaaqhb6eWS2CKz6/YYT6ToakOBkpj5izHkV
D3Vm7oXbCHML8/BPafvrQVii+pHWXsbkPZSf0y6CaHEwjBAtl+rO+wKPcpYey93I
o8QWcXCjYy5rUhfPq9gwzcymiq7yfCGcCGRvEhNNPWdmkISFXWHcXa0F88Gh6WY0
dIdP7JcLufMp6AlBqty5sYxf6zWyC8ropRoVLJb6W8ju9lpjuimXLcUb/bJnwZpG
5diCzQIDAQABo4GYMIGVMB0GA1UdDgQWBBSa40+TPqaSrPaViPTqY74iy89yKTBW
BgNVHSMETzBNgBQOpP489IglDegsPnSUDqQP7E96fKEqpCgwJjEkMCIGA1UEAxQb
Q0ExX3NoYTI1Nl8yMDQ4XzY1NTM3X3YzX2NhggkA5u5EbUSGdjEwDwYDVR0TAQH/
BAUwAwEB/zALBgNVHQ8EBAMCAgQwDQYJKoZIhvcNAQELBQADggEBAJHYwou4C4QO
2oIjuTq2MAjnH2cZd9JJjYP7MHoaIkQAXTxuS/sMMmq2sV9ypNDr7pw0UOls0t/H
SgHqgZhA7eerbcZmHypPqzLof+yZN/YtrqJLomzu9l0tXNaL/NvKykqUgZ5hNZGy
tbEK+YcBBCgQPX/GWVybU0vhdgxcMNqN9x76JyOJH5xjRMR0a81XDkvhOELB3KKD
9dSZ8eSo1TLUDynz9HQREcB35hNLJds8sibSKtAqVWCvg3eNPtehdFvYE/D1jHqo
0LPD39RX3/6EfaQoefog/UV+i3lnQ+bwcunLL4eWpo37fJiFTyxc1cRTvK7JEeQP
hFXjVV+ociM=
-----END CERTIFICATE-----
